target datalayout = "e-m:e-p270:32:32-p271:32:32-p272:64:64-i64:64-i128:128-f80:128-n8:16:32:64-S128"
target triple = "x86_64-pc-linux-gnu"

%class.LibRaw = type { ptr, %struct.libraw_data_t, ptr, %struct.libraw_internal_data_t, [2048 x %struct.decode], ptr, ptr, [10 x %struct.tiff_ifd_t], %class.libraw_memmgr, %struct.libraw_callbacks_t, { i64, i64 }, { i64, i64 }, { i64, i64 }, ptr, ptr, ptr, i64, ptr, ptr, ptr, ptr }
%struct.libraw_data_t = type { ptr, %struct.libraw_image_sizes_t, %struct.libraw_iparams_t, %struct.libraw_lensinfo_t, %struct.libraw_makernotes_t, %struct.libraw_shootinginfo_t, %struct.libraw_output_params_t, %struct.libraw_raw_unpack_params_t, i32, i32, %struct.libraw_colordata_t, %struct.libraw_imgother_t, %struct.libraw_thumbnail_t, %struct.libraw_thumbnail_list_t, %struct.libraw_rawdata_t, ptr }
%struct.libraw_image_sizes_t = type { i16, i16, i16, i16, i16, i16, i16, i16, i32, double, i32, [8 x [4 x i32]], i16, [2 x %struct.libraw_raw_inset_crop_t] }
%struct.libraw_raw_inset_crop_t = type { i16, i16, i16, i16 }
%struct.libraw_iparams_t = type { [4 x i8], [64 x i8], [64 x i8], [64 x i8], [64 x i8], [64 x i8], i32, i32, i32, i32, i32, i32, [6 x [6 x i8]], [6 x [6 x i8]], [5 x i8], i32, ptr }
%struct.libraw_lensinfo_t = type { float, float, float, float, float, [128 x i8], [128 x i8], [128 x i8], [128 x i8], i16, %struct.libraw_nikonlens_t, %struct.libraw_dnglens_t, %struct.libraw_makernotes_lens_t }
%struct.libraw_nikonlens_t = type { float, i8, i8, i8, i8 }
%struct.libraw_dnglens_t = type { float, float, float, float }
%struct.libraw_makernotes_lens_t = type { i64, [128 x i8], i16, i16, i64, i16, i16, [64 x i8], i16, [16 x i8], [16 x i8], float, float, float, float, float, float, float, float, float, float, float, float, float, float, float, i64, [128 x i8], i64, [128 x i8], i64, [128 x i8], i16, float }
%struct.libraw_makernotes_t = type { %struct.libraw_canon_makernotes_t, %struct.libraw_nikon_makernotes_t, %struct.libraw_hasselblad_makernotes_t, %struct.libraw_fuji_info_t, %struct.libraw_olympus_makernotes_t, %struct.libraw_sony_info_t, %struct.libraw_kodak_makernotes_t, %struct.libraw_panasonic_makernotes_t, %struct.libraw_pentax_makernotes_t, %struct.libraw_p1_makernotes_t, %struct.libraw_ricoh_makernotes_t, %struct.libraw_samsung_makernotes_t, %struct.libraw_metadata_common_t }
%struct.libraw_canon_makernotes_t = type { i32, i32, i32, i32, [4 x i32], i32, [4 x i32], i16, i16, i8, i16, i16, i16, i16, i16, i16, i16, i16, i16, i16, i16, i16, i16, i32, float, i16, i16, i16, i32, i16, i32, i32, i16, i32, %struct.libraw_area_t, %struct.libraw_area_t, %struct.libraw_area_t, %struct.libraw_area_t, %struct.libraw_area_t, [2 x i16] }
%struct.libraw_area_t = type { i16, i16, i16, i16 }
%struct.libraw_nikon_makernotes_t = type { double, i16, i16, [7 x i8], i8, i8, [13 x i8], [20 x i8], [4 x i8], [4 x i8], [4 x i8], i8, i8, i8, i8, i8, [2 x i8], i8, i8, i8, i8, i8, [4 x i8], [4 x i8], i8, i16, i32, i32, i32, i32, [4 x double], i8, i8, i8, i32, i32, i32, i8, [4 x i16], i16, %struct.libraw_sensor_highspeed_crop_t, i16, i16, i16, i32, [20 x i8], [20 x i8], i32, i16, double, double, double }
%struct.libraw_sensor_highspeed_crop_t = type { i16, i16, i16, i16 }
%struct.libraw_hasselblad_makernotes_t = type { i32, double, [8 x i8], [64 x i8], [64 x i8], i32, i32, i32, i32, [32 x i8], [64 x i8], i32, [2 x i32], [2 x i32], [4 x [3 x double]] }
%struct.libraw_fuji_info_t = type { float, i16, i16, i16, i16, i16, i16, i16, i16, [33 x i8], [33 x i8], float, i16, i16, [2 x i16], i16, i32, i32, i16, [3 x i16], i16, i16, i16, i16, i16, i32, i16, [13 x i8], [5 x i8], [5 x i8], i32, i16, i32, i16, [9 x i16], [32 x i32], i32, i32, i32, [2 x float], i32 }
%struct.libraw_olympus_makernotes_t = type { [6 x i8], i16, [2 x i32], [5 x i16], i16, [2 x i16], i16, i16, [64 x i32], [5 x double], i16, i8, [3 x i16], [3 x i32], i16, i16, i16, i16, double, [4 x i16], [2 x i32], i8, i32, i16, i16 }
%struct.libraw_sony_info_t = type { i16, i8, i8, i32, i8, i32, i8, i8, i16, [2 x i16], i8, i8, i16, [10 x i8], i8, i8, [4 x i16], i16, i8, i8, i8, i16, i32, i16, [2 x i16], i16, i16, i16, i16, i16, i16, i16, i32, float, i16, i32, i32, i16, [20 x i8], i32, i16, i32, i8, i8, i16, i16, i16, i16, i16, i16, i16, i16, i16, i32, i16, [16 x i8], float }
%struct.libraw_kodak_makernotes_t = type { i16, i16, i16, i16, i16, i16, [3 x [3 x float]], [3 x [3 x float]], [3 x [3 x float]], [3 x [3 x float]], [3 x [3 x float]], [3 x [3 x float]], i16, i16, i16, i16, float, float }
%struct.libraw_panasonic_makernotes_t = type { i16, i16, [8 x float], i32, float, [3 x i32], i16, i16, i32, i32 }
%struct.libraw_pentax_makernotes_t = type { [4 x i8], [2 x i16], [2 x i16], i16, i32, i32, i16, i16, i8, i8, i16 }
%struct.libraw_p1_makernotes_t = type { [64 x i8], [64 x i8], [256 x i8], [64 x i8] }
%struct.libraw_ricoh_makernotes_t = type { i16, [2 x i32], [2 x i32], i16, i32, i32, i32, i32, i16, i16, i16, i16, i16, i16, double, double }
%struct.libraw_samsung_makernotes_t = type { [4 x i32], [4 x i32], [2 x i32], [11 x i32], double, i32, [32 x i8] }
%struct.libraw_metadata_common_t = type { float, float, float, float, float, float, float, float, float, float, float, float, float, float, float, float, i16, [128 x i8], float, [4 x %struct.libraw_afinfo_item_t], i32 }
%struct.libraw_afinfo_item_t = type { i32, i16, i32, i32, ptr }
%struct.libraw_shootinginfo_t = type { i16, i16, i16, i16, i16, i16, i16, [64 x i8], [64 x i8] }
%struct.libraw_output_params_t = type { [4 x i32], [4 x i32], [4 x double], [6 x double], [4 x float], float, float, i32, i32, i32, i32, i32, i32, i32, ptr, ptr, ptr, ptr, i32, i32, i32, i32, i32, i32, [4 x i32], i32, i32, float, float, i32, i32, i32, i32, i32, i32, i32, i32, float, float, i32, i32 }
%struct.libraw_raw_unpack_params_t = type { i32, i32, i32, i32, i32, i32, i32, float, [5 x i8], ptr }
%struct.libraw_colordata_t = type { [65536 x i16], [4104 x i32], i32, i32, i32, [4 x i64], float, float, [8 x [8 x i16]], [4 x float], [4 x float], [3 x [4 x float]], [3 x [4 x float]], [3 x [4 x float]], [4 x [3 x float]], %struct.ph1_t, float, float, [64 x i8], [64 x i8], [64 x i8], [64 x i8], [17 x i8], [64 x i8], ptr, i32, [8 x i32], [2 x %struct.libraw_dng_color_t], %struct.libraw_dng_levels_t, [256 x [4 x i32]], [64 x [5 x float]], i32, [2 x %struct.libraw_P1_color_t], i32, i32 }
%struct.ph1_t = type { i32, i32, i32, i32, i32, i32, i32, i32, float }
%struct.libraw_dng_color_t = type { i32, i16, [4 x [4 x float]], [4 x [3 x float]], [3 x [4 x float]] }
%struct.libraw_dng_levels_t = type { i32, [4104 x i32], i32, [4104 x float], float, [4 x i32], [4 x i16], [4 x float], i32, [4 x float], [4 x float], float, float }
%struct.libraw_P1_color_t = type { [9 x float] }
%struct.libraw_imgother_t = type { float, float, float, float, i64, i32, [32 x i32], %struct.libraw_gps_info_t, [512 x i8], [64 x i8], [4 x float] }
%struct.libraw_gps_info_t = type { [3 x float], [3 x float], [3 x float], float, i8, i8, i8, i8, i8 }
%struct.libraw_thumbnail_t = type { i32, i16, i16, i32, i32, ptr }
%struct.libraw_thumbnail_list_t = type { i32, [8 x %struct.libraw_thumbnail_item_t] }
%struct.libraw_thumbnail_item_t = type { i32, i16, i16, i16, i32, i32, i64 }
%struct.libraw_rawdata_t = type { ptr, ptr, ptr, ptr, ptr, ptr, ptr, ptr, ptr, %struct.libraw_iparams_t, %struct.libraw_image_sizes_t, %struct.libraw_internal_output_params_t, %struct.libraw_colordata_t }
%struct.libraw_internal_output_params_t = type { i32, i32, i32, i16, i16 }
%struct.libraw_internal_data_t = type { %struct.internal_data_t, %struct.libraw_internal_output_params_t, %struct.output_data_t, %struct.identify_data_t, %struct.unpacker_data_t }
%struct.internal_data_t = type { ptr, ptr, i32, ptr, i64, i64, [4 x i32] }
%struct.output_data_t = type { ptr, ptr }
%struct.identify_data_t = type { i32, i64, i64, i32, i32, i32 }
%struct.unpacker_data_t = type { i16, [4 x i16], [3 x i16], i32, i64, i64, i64, i64, i64, i64, i32, i32, i32, i32, i32, i32, i32, i32, i32, i32, i32, i32, i32, i32, i32, i32, i32, i64, i32, i32, i32, i32, i32, i32, i32, i32, i32, %struct.pana8_tags_t, [16 x %struct.crx_data_header_t], i32, i32, i16, i16, i32, i32, i32, i32, i32, i32, i32, [20 x i32], i16 }
%struct.pana8_tags_t = type { [6 x i32], [6 x i16], i16, [4 x i16], [17 x i16], [17 x i16], [17 x i16], i16, i16, [5 x i64], [5 x i16], [5 x i32], [5 x i16], [5 x i16] }
%struct.crx_data_header_t = type { i32, i32, i32, i32, i32, i32, i32, i32, i32, i32, i32, i32, i32, i32, i32, i64, i32, ptr, i32, i32, i32, ptr, i32, ptr }
%struct.decode = type { [2 x ptr], i32 }
%struct.tiff_ifd_t = type { i32, i32, i32, i32, i32, i32, i32, i32, i32, i32, i32, i32, i32, i32, i32, ptr, i32, ptr, i32, i32, i32, i32, i32, i32, i32, float, i64, i64, i32, [2 x %struct.libraw_dng_color_t], %struct.libraw_dng_levels_t, i32 }
%class.libraw_memmgr = type <{ ptr, i32, [4 x i8] }>
%struct.libraw_callbacks_t = type { ptr, ptr, ptr, ptr, ptr, ptr, ptr, ptr, ptr, ptr, ptr, ptr, ptr, ptr, ptr, ptr, ptr }

; Function Attrs: inlinehint mustprogress nounwind uwtable
define linkonce_odr void @_ZSt4swapIiENSt9enable_ifIXsr6__and_ISt6__not_ISt15__is_tuple_likeIT_EESt21is_move_constructibleIS3_ESt18is_move_assignableIS3_EEE5valueEvE4typeERS3_SC_(ptr noundef nonnull align 4 dereferenceable(4) %0, ptr noundef nonnull align 4 dereferenceable(4) %1) #7 comdat {
  %3 = alloca ptr, align 8
  %4 = alloca ptr, align 8
  %5 = alloca i32, align 4
  store ptr %0, ptr %3, align 8, !tbaa !11
  store ptr %1, ptr %4, align 8, !tbaa !11
  call void @llvm.lifetime.start.p0(i64 4, ptr %5) #11
  %6 = load ptr, ptr %3, align 8, !tbaa !11
  %7 = load i32, ptr %6, align 4, !tbaa !77
  store i32 %7, ptr %5, align 4, !tbaa !77
  %8 = load ptr, ptr %4, align 8, !tbaa !11
  %9 = load i32, ptr %8, align 4, !tbaa !77
  %10 = load ptr, ptr %3, align 8, !tbaa !11
  store i32 %9, ptr %10, align 4, !tbaa !77
  %11 = load i32, ptr %5, align 4, !tbaa !77
  %12 = load ptr, ptr %4, align 8, !tbaa !11
  store i32 %11, ptr %12, align 4, !tbaa !77
  call void @llvm.lifetime.end.p0(i64 4, ptr %5) #11
  ret void
}

; Function Attrs: mustprogress nounwind uwtable
define void @_ZNK6LibRaw20get_mem_image_formatEPiS0_S0_S0_(ptr noundef nonnull align 8 dereferenceable(767680) %0, ptr noundef %1, ptr noundef %2, ptr noundef %3, ptr noundef %4) #8 align 2 {
  %6 = alloca ptr, align 8
  %7 = alloca ptr, align 8
  %8 = alloca ptr, align 8
  %9 = alloca ptr, align 8
  %10 = alloca ptr, align 8
  %11 = alloca i32, align 4
  store ptr %0, ptr %6, align 8, !tbaa !6
  store ptr %1, ptr %7, align 8, !tbaa !11
  store ptr %2, ptr %8, align 8, !tbaa !11
  store ptr %3, ptr %9, align 8, !tbaa !11
  store ptr %4, ptr %10, align 8, !tbaa !11
  %12 = load ptr, ptr %6, align 8
  %13 = getelementptr inbounds nuw %class.LibRaw, ptr %12, i32 0, i32 1
  %14 = getelementptr inbounds nuw %struct.libraw_data_t, ptr %13, i32 0, i32 1
  %15 = getelementptr inbounds nuw %struct.libraw_image_sizes_t, ptr %14, i32 0, i32 3
  %16 = load i16, ptr %15, align 2, !tbaa !93
  %17 = zext i16 %16 to i32
  %18 = load ptr, ptr %7, align 8, !tbaa !11
  store i32 %17, ptr %18, align 4, !tbaa !77
  %19 = getelementptr inbounds nuw %class.LibRaw, ptr %12, i32 0, i32 1
  %20 = getelementptr inbounds nuw %struct.libraw_data_t, ptr %19, i32 0, i32 1
  %21 = getelementptr inbounds nuw %struct.libraw_image_sizes_t, ptr %20, i32 0, i32 2
  %22 = load i16, ptr %21, align 4, !tbaa !94
  %23 = zext i16 %22 to i32
  %24 = load ptr, ptr %8, align 8, !tbaa !11
  store i32 %23, ptr %24, align 4, !tbaa !77
  %25 = getelementptr inbounds nuw %class.LibRaw, ptr %12, i32 0, i32 1
  %26 = getelementptr inbounds nuw %struct.libraw_data_t, ptr %25, i32 0, i32 8
  %27 = load i32, ptr %26, align 8, !tbaa !95
  %28 = icmp ult i32 %27, 32768
  br i1 %28, label %29, label %118

29:                                               ; preds = %5
  %30 = getelementptr inbounds nuw %class.LibRaw, ptr %12, i32 0, i32 1
  %31 = getelementptr inbounds nuw %struct.libraw_data_t, ptr %30, i32 0, i32 6
  %32 = getelementptr inbounds nuw %struct.libraw_output_params_t, ptr %31, i32 0, i32 30
  %33 = load i32, ptr %32, align 4, !tbaa !96
  %34 = icmp ne i32 %33, 0
  br i1 %34, label %35, label %117

35:                                               ; preds = %29
  %36 = getelementptr inbounds nuw %class.LibRaw, ptr %12, i32 0, i32 3
  %37 = getelementptr inbounds nuw %struct.libraw_internal_data_t, ptr %36, i32 0, i32 1
  %38 = getelementptr inbounds nuw %struct.libraw_internal_output_params_t, ptr %37, i32 0, i32 4
  %39 = load i16, ptr %38, align 2, !tbaa !97
  %40 = icmp ne i16 %39, 0
  br i1 %40, label %41, label %77

41:                                               ; preds = %35
  call void @llvm.lifetime.start.p0(i64 4, ptr %11) #11
  %42 = getelementptr inbounds nuw %class.LibRaw, ptr %12, i32 0, i32 3
  %43 = getelementptr inbounds nuw %struct.libraw_internal_data_t, ptr %42, i32 0, i32 1
  %44 = getelementptr inbounds nuw %struct.libraw_internal_output_params_t, ptr %43, i32 0, i32 4
  %45 = load i16, ptr %44, align 2, !tbaa !97
  %46 = zext i16 %45 to i32
  %47 = sub nsw i32 %46, 1
  %48 = getelementptr inbounds nuw %class.LibRaw, ptr %12, i32 0, i32 3
  %49 = getelementptr inbounds nuw %struct.libraw_internal_data_t, ptr %48, i32 0, i32 1
  %50 = getelementptr inbounds nuw %struct.libraw_internal_output_params_t, ptr %49, i32 0, i32 3
  %51 = load i16, ptr %50, align 4, !tbaa !98
  %52 = zext i16 %51 to i32
  %53 = add nsw i32 %47, %52
  %54 = getelementptr inbounds nuw %class.LibRaw, ptr %12, i32 0, i32 3
  %55 = getelementptr inbounds nuw %struct.libraw_internal_data_t, ptr %54, i32 0, i32 1
  %56 = getelementptr inbounds nuw %struct.libraw_internal_output_params_t, ptr %55, i32 0, i32 3
  %57 = load i16, ptr %56, align 4, !tbaa !98
  %58 = zext i16 %57 to i32
  %59 = ashr i32 %53, %58
  store i32 %59, ptr %11, align 4, !tbaa !77
  %60 = load i32, ptr %11, align 4, !tbaa !77
  %61 = sitofp i32 %60 to double
  %62 = call reassoc nsz arcp contract afn double @llvm.sqrt.f64(double 5.000000e-01)
  %63 = fdiv reassoc nsz arcp contract afn double %61, %62
  %64 = fptoui double %63 to i16
  %65 = zext i16 %64 to i32
  %66 = load ptr, ptr %7, align 8, !tbaa !11
  store i32 %65, ptr %66, align 4, !tbaa !77
  %67 = load ptr, ptr %8, align 8, !tbaa !11
  %68 = load i32, ptr %67, align 4, !tbaa !77
  %69 = load i32, ptr %11, align 4, !tbaa !77
  %70 = sub nsw i32 %68, %69
  %71 = sitofp i32 %70 to double
  %72 = call reassoc nsz arcp contract afn double @llvm.sqrt.f64(double 5.000000e-01)
  %73 = fdiv reassoc nsz arcp contract afn double %71, %72
  %74 = fptoui double %73 to i16
  %75 = zext i16 %74 to i32
  %76 = load ptr, ptr %8, align 8, !tbaa !11
  store i32 %75, ptr %76, align 4, !tbaa !77
  call void @llvm.lifetime.end.p0(i64 4, ptr %11) #11
  br label %116

77:                                               ; preds = %35
  %78 = getelementptr inbounds nuw %class.LibRaw, ptr %12, i32 0, i32 1
  %79 = getelementptr inbounds nuw %struct.libraw_data_t, ptr %78, i32 0, i32 1
  %80 = getelementptr inbounds nuw %struct.libraw_image_sizes_t, ptr %79, i32 0, i32 9
  %81 = load double, ptr %80, align 8, !tbaa !99
  %82 = fcmp reassoc nsz arcp contract afn olt double %81, 0x3FEFD70A3D70A3D7
  br i1 %82, label %83, label %96

83:                                               ; preds = %77
  %84 = load ptr, ptr %8, align 8, !tbaa !11
  %85 = load i32, ptr %84, align 4, !tbaa !77
  %86 = sitofp i32 %85 to double
  %87 = getelementptr inbounds nuw %class.LibRaw, ptr %12, i32 0, i32 1
  %88 = getelementptr inbounds nuw %struct.libraw_data_t, ptr %87, i32 0, i32 1
  %89 = getelementptr inbounds nuw %struct.libraw_image_sizes_t, ptr %88, i32 0, i32 9
  %90 = load double, ptr %89, align 8, !tbaa !99
  %91 = fdiv reassoc nsz arcp contract afn double %86, %90
  %92 = fadd reassoc nsz arcp contract afn double %91, 5.000000e-01
  %93 = fptoui double %92 to i16
  %94 = zext i16 %93 to i32
  %95 = load ptr, ptr %8, align 8, !tbaa !11
  store i32 %94, ptr %95, align 4, !tbaa !77
  br label %96

96:                                               ; preds = %83, %77
  %97 = getelementptr inbounds nuw %class.LibRaw, ptr %12, i32 0, i32 1
  %98 = getelementptr inbounds nuw %struct.libraw_data_t, ptr %97, i32 0, i32 1
  %99 = getelementptr inbounds nuw %struct.libraw_image_sizes_t, ptr %98, i32 0, i32 9
  %100 = load double, ptr %99, align 8, !tbaa !99
  %101 = fcmp reassoc nsz arcp contract afn ogt double %100, 1.005000e+00
  br i1 %101, label %102, label %115

102:                                              ; preds = %96
  %103 = load ptr, ptr %7, align 8, !tbaa !11
  %104 = load i32, ptr %103, align 4, !tbaa !77
  %105 = sitofp i32 %104 to double
  %106 = getelementptr inbounds nuw %class.LibRaw, ptr %12, i32 0, i32 1
  %107 = getelementptr inbounds nuw %struct.libraw_data_t, ptr %106, i32 0, i32 1
  %108 = getelementptr inbounds nuw %struct.libraw_image_sizes_t, ptr %107, i32 0, i32 9
  %109 = load double, ptr %108, align 8, !tbaa !99
  %110 = fmul reassoc nsz arcp contract afn double %105, %109
  %111 = fadd reassoc nsz arcp contract afn double %110, 5.000000e-01
  %112 = fptoui double %111 to i16
  %113 = zext i16 %112 to i32
  %114 = load ptr, ptr %7, align 8, !tbaa !11
  store i32 %113, ptr %114, align 4, !tbaa !77
  br label %115

115:                                              ; preds = %102, %96
  br label %116

116:                                              ; preds = %115, %41
  br label %117

117:                                              ; preds = %116, %29
  br label %118

118:                                              ; preds = %117, %5
  %119 = getelementptr inbounds nuw %class.LibRaw, ptr %12, i32 0, i32 1
  %120 = getelementptr inbounds nuw %struct.libraw_data_t, ptr %119, i32 0, i32 1
  %121 = getelementptr inbounds nuw %struct.libraw_image_sizes_t, ptr %120, i32 0, i32 10
  %122 = load i32, ptr %121, align 8, !tbaa !100
  %123 = and i32 %122, 4
  %124 = icmp ne i32 %123, 0
  br i1 %124, label %125, label %128

125:                                              ; preds = %118
  %126 = load ptr, ptr %7, align 8, !tbaa !11
  %127 = load ptr, ptr %8, align 8, !tbaa !11
  call void @_ZSt4swapIiENSt9enable_ifIXsr6__and_ISt6__not_ISt15__is_tuple_likeIT_EESt21is_move_constructibleIS3_ESt18is_move_assignableIS3_EEE5valueEvE4typeERS3_SC_(ptr noundef nonnull align 4 dereferenceable(4) %126, ptr noundef nonnull align 4 dereferenceable(4) %127) #11
  br label %128

128:                                              ; preds = %125, %118
  %129 = getelementptr inbounds nuw %class.LibRaw, ptr %12, i32 0, i32 1
  %130 = getelementptr inbounds nuw %struct.libraw_data_t, ptr %129, i32 0, i32 2
  %131 = getelementptr inbounds nuw %struct.libraw_iparams_t, ptr %130, i32 0, i32 10
  %132 = load i32, ptr %131, align 4, !tbaa !101
  %133 = load ptr, ptr %9, align 8, !tbaa !11
  store i32 %132, ptr %133, align 4, !tbaa !77
  %134 = getelementptr inbounds nuw %class.LibRaw, ptr %12, i32 0, i32 1
  %135 = getelementptr inbounds nuw %struct.libraw_data_t, ptr %134, i32 0, i32 6
  %136 = getelementptr inbounds nuw %struct.libraw_output_params_t, ptr %135, i32 0, i32 18
  %137 = load i32, ptr %136, align 8, !tbaa !102
  %138 = load ptr, ptr %10, align 8, !tbaa !11
  store i32 %137, ptr %138, align 4, !tbaa !77
  ret void
}