; Function Attrs: mustprogress nofree norecurse nosync nounwind willreturn memory(write, argmem: readwrite, inaccessiblemem: none) uwtable
define void @_ZNK6LibRaw20get_mem_image_formatEPiS0_S0_S0_(ptr noundef nonnull readonly align 8 captures(none) dereferenceable(767680) %0, ptr noundef captures(none) initializes((0, 4)) %1, ptr noundef captures(none) initializes((0, 4)) %2, ptr noundef writeonly captures(none) initializes((0, 4)) %3, ptr noundef writeonly captures(none) initializes((0, 4)) %4) local_unnamed_addr #7 align 2 {
  %6 = getelementptr inbounds nuw i8, ptr %0, i64 22
  %7 = load i16, ptr %6, align 2, !tbaa !88
  %8 = zext i16 %7 to i32
  store i32 %8, ptr %1, align 4, !tbaa !87
  %9 = getelementptr inbounds nuw i8, ptr %0, i64 20
  %10 = load i16, ptr %9, align 4, !tbaa !89
  %11 = zext i16 %10 to i32
  store i32 %11, ptr %2, align 4, !tbaa !87
  %12 = getelementptr inbounds nuw i8, ptr %0, i64 5496
  %13 = load i32, ptr %12, align 8, !tbaa !90
  %14 = icmp ugt i32 %13, 32767
  %15 = getelementptr inbounds nuw i8, ptr %0, i64 5404
  %16 = load i32, ptr %15, align 4
  %.not = icmp eq i32 %16, 0
  %or.cond = select i1 %14, i1 true, i1 %.not
  br i1 %or.cond, label %55, label %17

17:                                               ; preds = %5
  %18 = getelementptr inbounds nuw i8, ptr %0, i64 381494
  %19 = load i16, ptr %18, align 2, !tbaa !91
  %.not17 = icmp eq i16 %19, 0
  br i1 %.not17, label %36, label %20

20:                                               ; preds = %17
  %21 = zext i16 %19 to i32
  %22 = add nsw i32 %21, -1
  %23 = getelementptr inbounds nuw i8, ptr %0, i64 381492
  %24 = load i16, ptr %23, align 4, !tbaa !92
  %25 = zext i16 %24 to i32
  %26 = add nuw nsw i32 %22, %25
  %27 = lshr i32 %26, %25
  %28 = uitofp nneg i32 %27 to double
  %29 = fmul reassoc nsz arcp contract afn double %28, 0x3FF6A09E667F3BCC
  %30 = fptoui double %29 to i16
  %31 = zext i16 %30 to i32
  store i32 %31, ptr %1, align 4, !tbaa !87
  %32 = load i32, ptr %2, align 4, !tbaa !87
  %33 = sub nsw i32 %32, %27
  %34 = sitofp i32 %33 to double
  %35 = fmul reassoc nsz arcp contract afn double %34, 0x3FF6A09E667F3BCC
  br label %.sink.split

36:                                               ; preds = %17
  %37 = getelementptr inbounds nuw i8, ptr %0, i64 40
  %38 = load double, ptr %37, align 8, !tbaa !93
  %39 = fcmp reassoc nsz arcp contract afn olt double %38, 0x3FEFD70A3D70A3D7
  br i1 %39, label %40, label %46

40:                                               ; preds = %36
  %41 = uitofp i16 %10 to double
  %42 = fdiv reassoc nsz arcp contract afn double %41, %38
  %43 = fadd reassoc nsz arcp contract afn double %42, 5.000000e-01
  %44 = fptoui double %43 to i16
  %45 = zext i16 %44 to i32
  store i32 %45, ptr %2, align 4, !tbaa !87
  br label %46

46:                                               ; preds = %40, %36
  %47 = fcmp reassoc nsz arcp contract afn ogt double %38, 1.005000e+00
  br i1 %47, label %48, label %55

48:                                               ; preds = %46
  %49 = load i32, ptr %1, align 4, !tbaa !87
  %50 = sitofp i32 %49 to double
  %51 = fmul reassoc nsz arcp contract afn double %38, %50
  %52 = fadd reassoc nsz arcp contract afn double %51, 5.000000e-01
  br label %.sink.split

.sink.split:                                      ; preds = %20, %48
  %.sink = phi double [ %52, %48 ], [ %35, %20 ]
  %.sink20 = phi ptr [ %1, %48 ], [ %2, %20 ]
  %53 = fptoui double %.sink to i16
  %54 = zext i16 %53 to i32
  store i32 %54, ptr %.sink20, align 4, !tbaa !87
  br label %55

55:                                               ; preds = %.sink.split, %46, %5
  %56 = getelementptr inbounds nuw i8, ptr %0, i64 48
  %57 = load i32, ptr %56, align 8, !tbaa !94
  %58 = and i32 %57, 4
  %.not18 = icmp eq i32 %58, 0
  br i1 %.not18, label %62, label %59

59:                                               ; preds = %55
  %60 = load i32, ptr %1, align 4, !tbaa !87
  %61 = load i32, ptr %2, align 4, !tbaa !87
  store i32 %61, ptr %1, align 4, !tbaa !87
  store i32 %60, ptr %2, align 4, !tbaa !87
  br label %62

62:                                               ; preds = %59, %55
  %63 = getelementptr inbounds nuw i8, ptr %0, i64 540
  %64 = load i32, ptr %63, align 4, !tbaa !95
  store i32 %64, ptr %3, align 4, !tbaa !87
  %65 = getelementptr inbounds nuw i8, ptr %0, i64 5344
  %66 = load i32, ptr %65, align 8, !tbaa !96
  store i32 %66, ptr %4, align 4, !tbaa !87
  ret void
}